target datalayout = "e-m:e-p270:32:32-p271:32:32-p272:64:64-i64:64-i128:128-f80:128-n8:16:32:64-S128"
target triple = "x86_64-pc-linux-gnu"

%struct.magic_set = type { [2 x ptr], %struct.cont, %struct.out, i32, i32, i32, i32, i32, ptr, i64, i32, %struct.anon, %union.VALUETYPE, i16, i16, i16, i16, i16, i16, i64, i64, i64 }
%struct.cont = type { i64, ptr }
%struct.out = type { ptr, i64, ptr }
%struct.anon = type { ptr, i64, i64, i64 }
%union.VALUETYPE = type { [2 x i64], [112 x i8] }

; Function Attrs: nounwind uwtable
define hidden i32 @magic_setflags(ptr noundef %0, i32 noundef %1) #0 {
  %3 = alloca i32, align 4
  %4 = alloca ptr, align 8
  %5 = alloca i32, align 4
  store ptr %0, ptr %4, align 8
  store i32 %1, ptr %5, align 4
  %6 = load ptr, ptr %4, align 8
  %7 = icmp eq ptr %6, null
  br i1 %7, label %8, label %9

8:                                                ; preds = %2
  store i32 -1, ptr %3, align 4
  br label %13

9:                                                ; preds = %2
  %10 = load i32, ptr %5, align 4
  %11 = load ptr, ptr %4, align 8
  %12 = getelementptr inbounds %struct.magic_set, ptr %11, i32 0, i32 6
  store i32 %10, ptr %12, align 4
  store i32 0, ptr %3, align 4
  br label %13

13:                                               ; preds = %9, %8
  %14 = load i32, ptr %3, align 4
  ret i32 %14
}